; ModuleID = '50/198.c'
source_filename = "50/198.c"
target datalayout = "e-m:e-p270:32:32-p271:32:32-p272:64:64-i64:64-f80:128-n8:16:32:64-S128"
target triple = "x86_64-pc-linux-gnu"

@__const.main.b = private unnamed_addr constant [12 x i32] [i32 31, i32 28, i32 31, i32 30, i32 31, i32 30, i32 31, i32 31, i32 30, i32 31, i32 30, i32 31], align 16
@.str = private unnamed_addr constant [3 x i8] c"%d\00", align 1
@.str.1 = private unnamed_addr constant [4 x i8] c"%d\0A\00", align 1

; Function Attrs: noinline nounwind uwtable
define dso_local void @main() #0 {
  %1 = alloca i32, align 4
  %2 = alloca i32, align 4
  %3 = alloca [13 x i32], align 16
  %4 = alloca [12 x i32], align 16
  %5 = bitcast [12 x i32]* %4 to i8*
  call void @llvm.memcpy.p0i8.p0i8.i64(i8* align 16 %5, i8* align 16 bitcast ([12 x i32]* @__const.main.b to i8*), i64 48, i1 false)
  %6 = call i32 (i8*, ...) @__isoc99_scanf(i8* getelementptr inbounds ([3 x i8], [3 x i8]* @.str, i64 0, i64 0), i32* %1)
  %7 = load i32, i32* %1, align 4
  %8 = getelementptr inbounds [13 x i32], [13 x i32]* %3, i64 0, i64 0
  store i32 %7, i32* %8, align 16
  %9 = getelementptr inbounds [13 x i32], [13 x i32]* %3, i64 0, i64 0
  %10 = load i32, i32* %9, align 16
  %11 = add nsw i32 %10, 12
  %12 = getelementptr inbounds [13 x i32], [13 x i32]* %3, i64 0, i64 1
  store i32 %11, i32* %12, align 4
  store i32 2, i32* %2, align 4
  br label %13

13:                                               ; preds = %31, %0
  %14 = load i32, i32* %2, align 4
  %15 = icmp slt i32 %14, 13
  br i1 %15, label %16, label %34

16:                                               ; preds = %13
  %17 = load i32, i32* %2, align 4
  %18 = sub nsw i32 %17, 1
  %19 = sext i32 %18 to i64
  %20 = getelementptr inbounds [13 x i32], [13 x i32]* %3, i64 0, i64 %19
  %21 = load i32, i32* %20, align 4
  %22 = load i32, i32* %2, align 4
  %23 = sub nsw i32 %22, 2
  %24 = sext i32 %23 to i64
  %25 = getelementptr inbounds [12 x i32], [12 x i32]* %4, i64 0, i64 %24
  %26 = load i32, i32* %25, align 4
  %27 = add nsw i32 %21, %26
  %28 = load i32, i32* %2, align 4
  %29 = sext i32 %28 to i64
  %30 = getelementptr inbounds [13 x i32], [13 x i32]* %3, i64 0, i64 %29
  store i32 %27, i32* %30, align 4
  br label %31

31:                                               ; preds = %16
  %32 = load i32, i32* %2, align 4
  %33 = add nsw i32 %32, 1
  store i32 %33, i32* %2, align 4
  br label %13

34:                                               ; preds = %13
  store i32 1, i32* %2, align 4
  br label %35

35:                                               ; preds = %49, %34
  %36 = load i32, i32* %2, align 4
  %37 = icmp slt i32 %36, 13
  br i1 %37, label %38, label %52

38:                                               ; preds = %35
  %39 = load i32, i32* %2, align 4
  %40 = sext i32 %39 to i64
  %41 = getelementptr inbounds [13 x i32], [13 x i32]* %3, i64 0, i64 %40
  %42 = load i32, i32* %41, align 4
  %43 = srem i32 %42, 7
  %44 = icmp eq i32 %43, 5
  br i1 %44, label %45, label %48

45:                                               ; preds = %38
  %46 = load i32, i32* %2, align 4
  %47 = call i32 (i8*, ...) @printf(i8* getelementptr inbounds ([4 x i8], [4 x i8]* @.str.1, i64 0, i64 0), i32 %46)
  br label %48

48:                                               ; preds = %45, %38
  br label %49

49:                                               ; preds = %48
  %50 = load i32, i32* %2, align 4
  %51 = add nsw i32 %50, 1
  store i32 %51, i32* %2, align 4
  br label %35

52:                                               ; preds = %35
  ret void
}

; Function Attrs: argmemonly nounwind willreturn
declare void @llvm.memcpy.p0i8.p0i8.i64(i8* noalias nocapture writeonly, i8* noalias nocapture readonly, i64, i1 immarg) #1

declare dso_local i32 @__isoc99_scanf(i8*, ...) #2

declare dso_local i32 @printf(i8*, ...) #2


!llvm.module.flags = !{!0}
!llvm.ident = !{!1}

!0 = !{i32 1, !"wchar_size", i32 4}
!1 = !{!"clang version 10.0.0-4ubuntu1 "}
